target datalayout = "e-m:e-p270:32:32-p271:32:32-p272:64:64-i64:64-i128:128-f80:128-n8:16:32:64-S128"
target triple = "x86_64-pc-linux-gnu"

%struct.nghttp2_buf = type { ptr, ptr, ptr, ptr, ptr }
%struct.nghttp2_bufs = type { ptr, ptr, ptr, i64, i64, i64, i64, i64 }
%struct.nghttp2_buf_chain = type { ptr, %struct.nghttp2_buf }

; Function Attrs: nounwind uwtable
define hidden void @nghttp2_buf_free(ptr noundef %0, ptr noundef %1) #0 {
  %3 = alloca ptr, align 8
  %4 = alloca ptr, align 8
  store ptr %0, ptr %3, align 8, !tbaa !3
  store ptr %1, ptr %4, align 8, !tbaa !3
  %5 = load ptr, ptr %3, align 8, !tbaa !3
  %6 = icmp eq ptr %5, null
  br i1 %6, label %7, label %8

7:                                                ; preds = %2
  br label %15

8:                                                ; preds = %2
  %9 = load ptr, ptr %4, align 8, !tbaa !3
  %10 = load ptr, ptr %3, align 8, !tbaa !3
  %11 = getelementptr inbounds nuw %struct.nghttp2_buf, ptr %10, i32 0, i32 0
  %12 = load ptr, ptr %11, align 8, !tbaa !7
  call void @nghttp2_mem_free(ptr noundef %9, ptr noundef %12)
  %13 = load ptr, ptr %3, align 8, !tbaa !3
  %14 = getelementptr inbounds nuw %struct.nghttp2_buf, ptr %13, i32 0, i32 0
  store ptr null, ptr %14, align 8, !tbaa !7
  br label %15

15:                                               ; preds = %8, %7
  ret void
}

; Function Attrs: nounwind uwtable
define internal void @buf_chain_del(ptr noundef %0, ptr noundef %1) #0 {
  %3 = alloca ptr, align 8
  %4 = alloca ptr, align 8
  store ptr %0, ptr %3, align 8, !tbaa !23
  store ptr %1, ptr %4, align 8, !tbaa !3
  %5 = load ptr, ptr %3, align 8, !tbaa !23
  %6 = getelementptr inbounds nuw %struct.nghttp2_buf_chain, ptr %5, i32 0, i32 1
  %7 = load ptr, ptr %4, align 8, !tbaa !3
  call void @nghttp2_buf_free(ptr noundef %6, ptr noundef %7)
  %8 = load ptr, ptr %4, align 8, !tbaa !3
  %9 = load ptr, ptr %3, align 8, !tbaa !23
  call void @nghttp2_mem_free(ptr noundef %8, ptr noundef %9)
  ret void
}

; Function Attrs: nounwind uwtable
define hidden void @nghttp2_bufs_free(ptr noundef %0) #0 {
  %2 = alloca ptr, align 8
  %3 = alloca ptr, align 8
  %4 = alloca ptr, align 8
  %5 = alloca i32, align 4
  store ptr %0, ptr %2, align 8, !tbaa !3
  call void @llvm.lifetime.start.p0(i64 8, ptr %3) #4
  call void @llvm.lifetime.start.p0(i64 8, ptr %4) #4
  %6 = load ptr, ptr %2, align 8, !tbaa !3
  %7 = icmp eq ptr %6, null
  br i1 %7, label %8, label %9

8:                                                ; preds = %1
  store i32 1, ptr %5, align 4
  br label %28

9:                                                ; preds = %1
  %10 = load ptr, ptr %2, align 8, !tbaa !3
  %11 = getelementptr inbounds nuw %struct.nghttp2_bufs, ptr %10, i32 0, i32 0
  %12 = load ptr, ptr %11, align 8, !tbaa !24
  store ptr %12, ptr %3, align 8, !tbaa !23
  br label %13

13:                                               ; preds = %16, %9
  %14 = load ptr, ptr %3, align 8, !tbaa !23
  %15 = icmp ne ptr %14, null
  br i1 %15, label %16, label %25

16:                                               ; preds = %13
  %17 = load ptr, ptr %3, align 8, !tbaa !23
  %18 = getelementptr inbounds nuw %struct.nghttp2_buf_chain, ptr %17, i32 0, i32 0
  %19 = load ptr, ptr %18, align 8, !tbaa !36
  store ptr %19, ptr %4, align 8, !tbaa !23
  %20 = load ptr, ptr %3, align 8, !tbaa !23
  %21 = load ptr, ptr %2, align 8, !tbaa !3
  %22 = getelementptr inbounds nuw %struct.nghttp2_bufs, ptr %21, i32 0, i32 2
  %23 = load ptr, ptr %22, align 8, !tbaa !19
  call void @buf_chain_del(ptr noundef %20, ptr noundef %23)
  %24 = load ptr, ptr %4, align 8, !tbaa !23
  store ptr %24, ptr %3, align 8, !tbaa !23
  br label %13, !llvm.loop !37

25:                                               ; preds = %13
  %26 = load ptr, ptr %2, align 8, !tbaa !3
  %27 = getelementptr inbounds nuw %struct.nghttp2_bufs, ptr %26, i32 0, i32 0
  store ptr null, ptr %27, align 8, !tbaa !24
  store i32 0, ptr %5, align 4
  br label %28

28:                                               ; preds = %25, %8
  call void @llvm.lifetime.end.p0(i64 8, ptr %4) #4
  call void @llvm.lifetime.end.p0(i64 8, ptr %3) #4
  %29 = load i32, ptr %5, align 4
  switch i32 %29, label %31 [
    i32 0, label %30
    i32 1, label %30
  ]

30:                                               ; preds = %28, %28
  ret void

31:                                               ; preds = %28
  unreachable
}