; Function Attrs: nounwind uwtable
define hidden void @nghttp2_bufs_free(ptr noundef %0) local_unnamed_addr #1 {
  %2 = icmp eq ptr %0, null
  br i1 %2, label %11, label %3

3:                                                ; preds = %1
  %4 = load ptr, ptr %0, align 8, !tbaa !18
  %.not9 = icmp eq ptr %4, null
  br i1 %.not9, label %._crit_edge, label %.lr.ph

.lr.ph:                                           ; preds = %3
  %5 = getelementptr inbounds nuw i8, ptr %0, i64 16
  br label %6

6:                                                ; preds = %.lr.ph, %6
  %.010 = phi ptr [ %4, %.lr.ph ], [ %7, %6 ]
  %7 = load ptr, ptr %.010, align 8, !tbaa !27
  %8 = load ptr, ptr %5, align 8, !tbaa !13
  %9 = getelementptr inbounds nuw i8, ptr %.010, i64 8
  %10 = load ptr, ptr %9, align 8, !tbaa !9
  tail call void @nghttp2_mem_free(ptr noundef %8, ptr noundef %10) #10
  store ptr null, ptr %9, align 8, !tbaa !9
  tail call void @nghttp2_mem_free(ptr noundef %8, ptr noundef nonnull %.010) #10
  %.not = icmp eq ptr %7, null
  br i1 %.not, label %._crit_edge, label %6, !llvm.loop !28

._crit_edge:                                      ; preds = %6, %3
  store ptr null, ptr %0, align 8, !tbaa !18
  br label %11

11:                                               ; preds = %1, %._crit_edge
  ret void
}